target datalayout = "e-m:e-p270:32:32-p271:32:32-p272:64:64-i64:64-i128:128-f80:128-n8:16:32:64-S128"
target triple = "x86_64-pc-linux-gnu"

%union.pthread_mutex_t = type { %struct.__pthread_mutex_s }
%struct.__pthread_mutex_s = type { i32, i32, i32, i32, i32, i16, i16, %struct.__pthread_internal_list }
%struct.__pthread_internal_list = type { ptr, ptr }
%struct.slurmdb_cluster_rec = type { ptr, i16, i64, %struct.sockaddr_storage, ptr, i32, i16, ptr, i16, %struct.slurmdb_cluster_fed_t, i32, %union.pthread_mutex_t, ptr, ptr, ptr, i16, ptr, ptr }
%struct.sockaddr_storage = type { i16, [118 x i8], i64 }
%struct.slurmdb_cluster_fed_t = type { ptr, i32, ptr, ptr, ptr, i32, i8, i8 }
%struct.slurm_msg = type { %struct.sockaddr_storage, ptr, i32, i32, i32, i8, i32, i8, i32, ptr, ptr, i32, ptr, ptr, i16, i8, i16, i16, %struct.forward, ptr, %struct.sockaddr_storage, ptr }
%struct.forward = type { %struct.slurm_node_alias_addrs_t, i16, i16, ptr, i32, i16, i16 }
%struct.slurm_node_alias_addrs_t = type { i64, ptr, ptr, i32, ptr }
%struct.persist_conn_t = type { ptr, i32, i32, i8, ptr, ptr, ptr, i64, i16, i32, i16, i8, i32, i32, ptr, i16, ptr, i64, i32, ptr, %struct.slurm_trigger_callbacks_t, i16 }
%struct.slurm_trigger_callbacks_t = type { ptr, ptr, ptr, ptr, ptr }

@.str.1 = private unnamed_addr constant [29 x i8] c"%s: pthread_mutex_lock(): %m\00", align 1
@.str.2 = private unnamed_addr constant [31 x i8] c"%s: pthread_mutex_unlock(): %m\00", align 1
@__func__._send_recv_msg = private unnamed_addr constant [15 x i8] c"_send_recv_msg\00", align 1

; Function Attrs: nounwind uwtable
define internal i32 @_check_send(ptr noundef %0) #0 {
  %2 = alloca i32, align 4
  %3 = alloca ptr, align 8
  %4 = alloca ptr, align 8
  %5 = alloca i32, align 4
  store ptr %0, ptr %3, align 8
  call void @llvm.lifetime.start.p0(i64 8, ptr %4) #9
  %6 = load ptr, ptr %3, align 8
  %7 = getelementptr inbounds nuw %struct.slurmdb_cluster_rec, ptr %6, i32 0, i32 9
  %8 = getelementptr inbounds nuw %struct.slurmdb_cluster_fed_t, ptr %7, i32 0, i32 4
  %9 = load ptr, ptr %8, align 8
  store ptr %9, ptr %4, align 8
  %10 = load ptr, ptr %4, align 8
  %11 = icmp ne ptr %10, null
  br i1 %11, label %12, label %17

12:                                               ; preds = %1
  %13 = load ptr, ptr %4, align 8
  %14 = getelementptr inbounds nuw %struct.persist_conn_t, ptr %13, i32 0, i32 9
  %15 = load i32, ptr %14, align 4
  %16 = icmp eq i32 %15, -1
  br i1 %16, label %17, label %20

17:                                               ; preds = %12, %1
  %18 = load ptr, ptr %3, align 8
  %19 = call i32 @_open_controller_conn(ptr noundef %18, i1 noundef zeroext true)
  store i32 %19, ptr %2, align 4
  store i32 1, ptr %5, align 4
  br label %21

20:                                               ; preds = %12
  store i32 0, ptr %2, align 4
  store i32 1, ptr %5, align 4
  br label %21

21:                                               ; preds = %20, %17
  call void @llvm.lifetime.end.p0(i64 8, ptr %4) #9
  %22 = load i32, ptr %2, align 4
  ret i32 %22
}

; Function Attrs: nounwind uwtable
define internal i32 @_send_recv_msg(ptr noundef %0, ptr noundef %1, ptr noundef %2, i1 noundef zeroext %3) #0 {
  %5 = alloca ptr, align 8
  %6 = alloca ptr, align 8
  %7 = alloca ptr, align 8
  %8 = alloca i8, align 1
  %9 = alloca i32, align 4
  %10 = alloca i32, align 4
  %11 = alloca i32, align 4
  store ptr %0, ptr %5, align 8
  store ptr %1, ptr %6, align 8
  store ptr %2, ptr %7, align 8
  %12 = zext i1 %3 to i8
  store i8 %12, ptr %8, align 1
  call void @llvm.lifetime.start.p0(i64 4, ptr %9) #9
  %13 = load ptr, ptr %7, align 8
  call void @slurm_msg_t_init(ptr noundef %13)
  %14 = load i8, ptr %8, align 1, !range !11, !noundef !12
  %15 = trunc i8 %14 to i1
  br i1 %15, label %29, label %16

16:                                               ; preds = %4
  br label %17

17:                                               ; preds = %16
  call void @llvm.lifetime.start.p0(i64 4, ptr %10) #9
  %18 = load ptr, ptr %5, align 8
  %19 = getelementptr inbounds nuw %struct.slurmdb_cluster_rec, ptr %18, i32 0, i32 11
  %20 = call i32 @pthread_mutex_lock(ptr noundef %19) #9
  store i32 %20, ptr %10, align 4
  %21 = load i32, ptr %10, align 4
  %22 = icmp ne i32 %21, 0
  br i1 %22, label %23, label %26

23:                                               ; preds = %17
  %24 = load i32, ptr %10, align 4
  %25 = call ptr @__errno_location() #10
  store i32 %24, ptr %25, align 4
  call void (ptr, ...) @fatal_abort(ptr noundef @.str.1, ptr noundef @__func__._send_recv_msg) #11
  unreachable

26:                                               ; preds = %17
  call void @llvm.lifetime.end.p0(i64 4, ptr %10) #9
  br label %27

27:                                               ; preds = %26
  br label %28

28:                                               ; preds = %27
  br label %29

29:                                               ; preds = %28, %4
  %30 = load ptr, ptr %5, align 8
  %31 = call i32 @_check_send(ptr noundef %30)
  store i32 %31, ptr %9, align 4
  %32 = load i32, ptr %9, align 4
  %33 = icmp eq i32 %32, 0
  br i1 %33, label %34, label %57

34:                                               ; preds = %29
  %35 = load ptr, ptr %5, align 8
  %36 = getelementptr inbounds nuw %struct.slurmdb_cluster_rec, ptr %35, i32 0, i32 9
  %37 = getelementptr inbounds nuw %struct.slurmdb_cluster_fed_t, ptr %36, i32 0, i32 4
  %38 = load ptr, ptr %37, align 8
  %39 = icmp ne ptr %38, null
  br i1 %39, label %40, label %57

40:                                               ; preds = %34
  %41 = load ptr, ptr %5, align 8
  %42 = getelementptr inbounds nuw %struct.slurmdb_cluster_rec, ptr %41, i32 0, i32 9
  %43 = getelementptr inbounds nuw %struct.slurmdb_cluster_fed_t, ptr %42, i32 0, i32 4
  %44 = load ptr, ptr %43, align 8
  %45 = load ptr, ptr %6, align 8
  %46 = getelementptr inbounds nuw %struct.slurm_msg, ptr %45, i32 0, i32 10
  store ptr %44, ptr %46, align 8
  %47 = load ptr, ptr %7, align 8
  %48 = getelementptr inbounds nuw %struct.slurm_msg, ptr %47, i32 0, i32 10
  store ptr %44, ptr %48, align 8
  %49 = load ptr, ptr %6, align 8
  %50 = getelementptr inbounds nuw %struct.slurm_msg, ptr %49, i32 0, i32 10
  %51 = load ptr, ptr %50, align 8
  %52 = getelementptr inbounds nuw %struct.persist_conn_t, ptr %51, i32 0, i32 9
  %53 = load i32, ptr %52, align 4
  %54 = load ptr, ptr %6, align 8
  %55 = load ptr, ptr %7, align 8
  %56 = call i32 @slurm_send_recv_msg(i32 noundef %53, ptr noundef %54, ptr noundef %55, i32 noundef 0)
  store i32 %56, ptr %9, align 4
  br label %57

57:                                               ; preds = %40, %34, %29
  %58 = load i8, ptr %8, align 1, !range !11, !noundef !12
  %59 = trunc i8 %58 to i1
  br i1 %59, label %73, label %60

60:                                               ; preds = %57
  br label %61

61:                                               ; preds = %60
  call void @llvm.lifetime.start.p0(i64 4, ptr %11) #9
  %62 = load ptr, ptr %5, align 8
  %63 = getelementptr inbounds nuw %struct.slurmdb_cluster_rec, ptr %62, i32 0, i32 11
  %64 = call i32 @pthread_mutex_unlock(ptr noundef %63) #9
  store i32 %64, ptr %11, align 4
  %65 = load i32, ptr %11, align 4
  %66 = icmp ne i32 %65, 0
  br i1 %66, label %67, label %70

67:                                               ; preds = %61
  %68 = load i32, ptr %11, align 4
  %69 = call ptr @__errno_location() #10
  store i32 %68, ptr %69, align 4
  call void (ptr, ...) @fatal_abort(ptr noundef @.str.2, ptr noundef @__func__._send_recv_msg) #11
  unreachable

70:                                               ; preds = %61
  call void @llvm.lifetime.end.p0(i64 4, ptr %11) #9
  br label %71

71:                                               ; preds = %70
  br label %72

72:                                               ; preds = %71
  br label %73

73:                                               ; preds = %72, %57
  %74 = load i32, ptr %9, align 4
  call void @llvm.lifetime.end.p0(i64 4, ptr %9) #9
  ret i32 %74
}