; Function Attrs: nounwind uwtable
define internal fastcc i32 @_send_recv_msg(ptr noundef %0, ptr noundef nonnull %1, ptr noundef nonnull %2) unnamed_addr #0 {
  tail call void @slurm_msg_t_init(ptr noundef nonnull %2) #16
  %4 = getelementptr inbounds nuw i8, ptr %0, i64 240
  %5 = tail call i32 @pthread_mutex_lock(ptr noundef nonnull %4) #16
  %.not = icmp eq i32 %5, 0
  br i1 %.not, label %8, label %6

6:                                                ; preds = %3
  %7 = tail call ptr @__errno_location() #17
  store i32 %5, ptr %7, align 4
  tail call void (ptr, ...) @fatal_abort(ptr noundef nonnull @.str.1, ptr noundef nonnull @__func__._send_recv_msg) #18
  unreachable

8:                                                ; preds = %3
  %9 = getelementptr inbounds nuw i8, ptr %0, i64 216
  %10 = load ptr, ptr %9, align 8
  %.not.i = icmp eq ptr %10, null
  br i1 %.not.i, label %_check_send.exit, label %11

11:                                               ; preds = %8
  %12 = getelementptr inbounds nuw i8, ptr %10, i64 60
  %13 = load i32, ptr %12, align 4
  %14 = icmp eq i32 %13, -1
  br i1 %14, label %_check_send.exit, label %_check_send.exit.thread.thread

_check_send.exit:                                 ; preds = %8, %11
  %15 = tail call fastcc i32 @_open_controller_conn(ptr noundef nonnull %0, i1 noundef zeroext true)
  %16 = icmp eq i32 %15, 0
  br i1 %16, label %_check_send.exit.thread, label %24

_check_send.exit.thread:                          ; preds = %_check_send.exit
  %.pre = load ptr, ptr %9, align 8
  %.not22 = icmp eq ptr %.pre, null
  br i1 %.not22, label %24, label %_check_send.exit.thread.thread

_check_send.exit.thread.thread:                   ; preds = %11, %_check_send.exit.thread
  %17 = phi ptr [ %.pre, %_check_send.exit.thread ], [ %10, %11 ]
  %18 = getelementptr inbounds nuw i8, ptr %1, i64 176
  store ptr %17, ptr %18, align 8
  %19 = getelementptr inbounds nuw i8, ptr %2, i64 176
  store ptr %17, ptr %19, align 8
  %20 = load ptr, ptr %18, align 8
  %21 = getelementptr inbounds nuw i8, ptr %20, i64 60
  %22 = load i32, ptr %21, align 4
  %23 = tail call i32 @slurm_send_recv_msg(i32 noundef %22, ptr noundef nonnull %1, ptr noundef nonnull %2, i32 noundef 0) #16
  br label %24

24:                                               ; preds = %_check_send.exit, %_check_send.exit.thread, %_check_send.exit.thread.thread
  %.0 = phi i32 [ %23, %_check_send.exit.thread.thread ], [ 0, %_check_send.exit.thread ], [ %15, %_check_send.exit ]
  %25 = tail call i32 @pthread_mutex_unlock(ptr noundef nonnull %4) #16
  %.not23 = icmp eq i32 %25, 0
  br i1 %.not23, label %28, label %26

26:                                               ; preds = %24
  %27 = tail call ptr @__errno_location() #17
  store i32 %25, ptr %27, align 4
  tail call void (ptr, ...) @fatal_abort(ptr noundef nonnull @.str.2, ptr noundef nonnull @__func__._send_recv_msg) #18
  unreachable

28:                                               ; preds = %24
  ret i32 %.0
}